#include <math.h>
#include <stdio.h>
#include <stdlib.h>
#include <string.h>

void main()
{
	int n,k,i,m,t,a[100001];
	scanf("%d\n",&n);
	for(i=0;i<n;i++)  scanf("%d",&a[i]);
	scanf("%d\n",&k);
	a[n]=k+1;
	for(m=0,i=0;i<n;i++) 
	{
		if(a[i]==k) 
		{
		    t=i;
			for(i=t;i<n;i++) a[i]=a[i+1];
			a[t]==k ? (i=t-1):(i=t);
			m++;
		}
	}
    if(m!=n)
	{
		for(i=0;i<n-m-1;i++) printf("%d ",a[i]);  
	    printf("%d",a[n-m-1]);
	}
}