; ModuleID = '42/98.c'
source_filename = "42/98.c"
target datalayout = "e-m:e-p270:32:32-p271:32:32-p272:64:64-i64:64-f80:128-n8:16:32:64-S128"
target triple = "x86_64-pc-linux-gnu"

@.str = private unnamed_addr constant [4 x i8] c"%d\0A\00", align 1
@.str.1 = private unnamed_addr constant [3 x i8] c"%d\00", align 1
@.str.2 = private unnamed_addr constant [4 x i8] c"%d \00", align 1

; Function Attrs: noinline nounwind uwtable
define dso_local void @main() #0 {
  %1 = alloca i32, align 4
  %2 = alloca i32, align 4
  %3 = alloca i32, align 4
  %4 = alloca i32, align 4
  %5 = alloca i32, align 4
  %6 = alloca [100001 x i32], align 16
  %7 = call i32 (i8*, ...) @__isoc99_scanf(i8* getelementptr inbounds ([4 x i8], [4 x i8]* @.str, i64 0, i64 0), i32* %1)
  store i32 0, i32* %3, align 4
  br label %8

8:                                                ; preds = %17, %0
  %9 = load i32, i32* %3, align 4
  %10 = load i32, i32* %1, align 4
  %11 = icmp slt i32 %9, %10
  br i1 %11, label %12, label %20

12:                                               ; preds = %8
  %13 = load i32, i32* %3, align 4
  %14 = sext i32 %13 to i64
  %15 = getelementptr inbounds [100001 x i32], [100001 x i32]* %6, i64 0, i64 %14
  %16 = call i32 (i8*, ...) @__isoc99_scanf(i8* getelementptr inbounds ([3 x i8], [3 x i8]* @.str.1, i64 0, i64 0), i32* %15)
  br label %17

17:                                               ; preds = %12
  %18 = load i32, i32* %3, align 4
  %19 = add nsw i32 %18, 1
  store i32 %19, i32* %3, align 4
  br label %8

20:                                               ; preds = %8
  %21 = call i32 (i8*, ...) @__isoc99_scanf(i8* getelementptr inbounds ([4 x i8], [4 x i8]* @.str, i64 0, i64 0), i32* %2)
  %22 = load i32, i32* %2, align 4
  %23 = add nsw i32 %22, 1
  %24 = load i32, i32* %1, align 4
  %25 = sext i32 %24 to i64
  %26 = getelementptr inbounds [100001 x i32], [100001 x i32]* %6, i64 0, i64 %25
  store i32 %23, i32* %26, align 4
  store i32 0, i32* %4, align 4
  store i32 0, i32* %3, align 4
  br label %27

27:                                               ; preds = %74, %20
  %28 = load i32, i32* %3, align 4
  %29 = load i32, i32* %1, align 4
  %30 = icmp slt i32 %28, %29
  br i1 %30, label %31, label %77

31:                                               ; preds = %27
  %32 = load i32, i32* %3, align 4
  %33 = sext i32 %32 to i64
  %34 = getelementptr inbounds [100001 x i32], [100001 x i32]* %6, i64 0, i64 %33
  %35 = load i32, i32* %34, align 4
  %36 = load i32, i32* %2, align 4
  %37 = icmp eq i32 %35, %36
  br i1 %37, label %38, label %73

38:                                               ; preds = %31
  %39 = load i32, i32* %3, align 4
  store i32 %39, i32* %5, align 4
  %40 = load i32, i32* %5, align 4
  store i32 %40, i32* %3, align 4
  br label %41

41:                                               ; preds = %54, %38
  %42 = load i32, i32* %3, align 4
  %43 = load i32, i32* %1, align 4
  %44 = icmp slt i32 %42, %43
  br i1 %44, label %45, label %57

45:                                               ; preds = %41
  %46 = load i32, i32* %3, align 4
  %47 = add nsw i32 %46, 1
  %48 = sext i32 %47 to i64
  %49 = getelementptr inbounds [100001 x i32], [100001 x i32]* %6, i64 0, i64 %48
  %50 = load i32, i32* %49, align 4
  %51 = load i32, i32* %3, align 4
  %52 = sext i32 %51 to i64
  %53 = getelementptr inbounds [100001 x i32], [100001 x i32]* %6, i64 0, i64 %52
  store i32 %50, i32* %53, align 4
  br label %54

54:                                               ; preds = %45
  %55 = load i32, i32* %3, align 4
  %56 = add nsw i32 %55, 1
  store i32 %56, i32* %3, align 4
  br label %41

57:                                               ; preds = %41
  %58 = load i32, i32* %5, align 4
  %59 = sext i32 %58 to i64
  %60 = getelementptr inbounds [100001 x i32], [100001 x i32]* %6, i64 0, i64 %59
  %61 = load i32, i32* %60, align 4
  %62 = load i32, i32* %2, align 4
  %63 = icmp eq i32 %61, %62
  br i1 %63, label %64, label %67

64:                                               ; preds = %57
  %65 = load i32, i32* %5, align 4
  %66 = sub nsw i32 %65, 1
  store i32 %66, i32* %3, align 4
  br label %69

67:                                               ; preds = %57
  %68 = load i32, i32* %5, align 4
  store i32 %68, i32* %3, align 4
  br label %69

69:                                               ; preds = %67, %64
  %70 = phi i32 [ %66, %64 ], [ %68, %67 ]
  %71 = load i32, i32* %4, align 4
  %72 = add nsw i32 %71, 1
  store i32 %72, i32* %4, align 4
  br label %73

73:                                               ; preds = %69, %31
  br label %74

74:                                               ; preds = %73
  %75 = load i32, i32* %3, align 4
  %76 = add nsw i32 %75, 1
  store i32 %76, i32* %3, align 4
  br label %27

77:                                               ; preds = %27
  %78 = load i32, i32* %4, align 4
  %79 = load i32, i32* %1, align 4
  %80 = icmp ne i32 %78, %79
  br i1 %80, label %81, label %107

81:                                               ; preds = %77
  store i32 0, i32* %3, align 4
  br label %82

82:                                               ; preds = %95, %81
  %83 = load i32, i32* %3, align 4
  %84 = load i32, i32* %1, align 4
  %85 = load i32, i32* %4, align 4
  %86 = sub nsw i32 %84, %85
  %87 = sub nsw i32 %86, 1
  %88 = icmp slt i32 %83, %87
  br i1 %88, label %89, label %98

89:                                               ; preds = %82
  %90 = load i32, i32* %3, align 4
  %91 = sext i32 %90 to i64
  %92 = getelementptr inbounds [100001 x i32], [100001 x i32]* %6, i64 0, i64 %91
  %93 = load i32, i32* %92, align 4
  %94 = call i32 (i8*, ...) @printf(i8* getelementptr inbounds ([4 x i8], [4 x i8]* @.str.2, i64 0, i64 0), i32 %93)
  br label %95

95:                                               ; preds = %89
  %96 = load i32, i32* %3, align 4
  %97 = add nsw i32 %96, 1
  store i32 %97, i32* %3, align 4
  br label %82

98:                                               ; preds = %82
  %99 = load i32, i32* %1, align 4
  %100 = load i32, i32* %4, align 4
  %101 = sub nsw i32 %99, %100
  %102 = sub nsw i32 %101, 1
  %103 = sext i32 %102 to i64
  %104 = getelementptr inbounds [100001 x i32], [100001 x i32]* %6, i64 0, i64 %103
  %105 = load i32, i32* %104, align 4
  %106 = call i32 (i8*, ...) @printf(i8* getelementptr inbounds ([3 x i8], [3 x i8]* @.str.1, i64 0, i64 0), i32 %105)
  br label %107

107:                                              ; preds = %98, %77
  ret void
}

declare dso_local i32 @__isoc99_scanf(i8*, ...) #1

declare dso_local i32 @printf(i8*, ...) #1


!llvm.module.flags = !{!0}
!llvm.ident = !{!1}

!0 = !{i32 1, !"wchar_size", i32 4}
!1 = !{!"clang version 10.0.0-4ubuntu1 "}
